; Function Attrs: mustprogress uwtable
define dso_local void @_ZN9Doohickey7DespawnEv(ptr noundef nonnull align 4 captures(none) dereferenceable(57) initializes((56, 57)) %0) local_unnamed_addr #4 align 2 {
  %2 = getelementptr inbounds nuw i8, ptr %0, i64 32
  %.sroa.06.0.copyload = load i64, ptr %2, align 4
  tail call void @b2DestroyJoint(i64 %.sroa.06.0.copyload)
  %3 = getelementptr inbounds nuw i8, ptr %0, i64 40
  %.sroa.05.0.copyload = load i64, ptr %3, align 4
  tail call void @b2DestroyJoint(i64 %.sroa.05.0.copyload)
  %4 = getelementptr inbounds nuw i8, ptr %0, i64 48
  %.sroa.04.0.copyload = load i64, ptr %4, align 4
  tail call void @b2DestroyJoint(i64 %.sroa.04.0.copyload)
  %.sroa.03.0.copyload = load i64, ptr %0, align 4
  tail call void @b2DestroyBody(i64 %.sroa.03.0.copyload)
  %5 = getelementptr inbounds nuw i8, ptr %0, i64 8
  %.sroa.02.0.copyload = load i64, ptr %5, align 4
  tail call void @b2DestroyBody(i64 %.sroa.02.0.copyload)
  %6 = getelementptr inbounds nuw i8, ptr %0, i64 16
  %.sroa.01.0.copyload = load i64, ptr %6, align 4
  tail call void @b2DestroyBody(i64 %.sroa.01.0.copyload)
  %7 = getelementptr inbounds nuw i8, ptr %0, i64 24
  %.sroa.0.0.copyload = load i64, ptr %7, align 4
  tail call void @b2DestroyBody(i64 %.sroa.0.0.copyload)
  %8 = getelementptr inbounds nuw i8, ptr %0, i64 56
  store i8 0, ptr %8, align 4, !tbaa !37
  ret void
}